target datalayout = "e-m:e-p270:32:32-p271:32:32-p272:64:64-i64:64-i128:128-f80:128-n8:16:32:64-S128"
target triple = "x86_64-pc-linux-gnu"

; Function Attrs: nounwind uwtable
define hidden i32 @luaO_int2fb(i32 noundef %0) #0 {
  %2 = alloca i32, align 4
  %3 = alloca i32, align 4
  %4 = alloca i32, align 4
  %5 = alloca i32, align 4
  store i32 %0, ptr %3, align 4, !tbaa !4
  call void @llvm.lifetime.start.p0(i64 4, ptr %4) #7
  store i32 0, ptr %4, align 4, !tbaa !4
  br label %6

6:                                                ; preds = %9, %1
  %7 = load i32, ptr %3, align 4, !tbaa !4
  %8 = icmp uge i32 %7, 16
  br i1 %8, label %9, label %15

9:                                                ; preds = %6
  %10 = load i32, ptr %3, align 4, !tbaa !4
  %11 = add i32 %10, 1
  %12 = lshr i32 %11, 1
  store i32 %12, ptr %3, align 4, !tbaa !4
  %13 = load i32, ptr %4, align 4, !tbaa !4
  %14 = add nsw i32 %13, 1
  store i32 %14, ptr %4, align 4, !tbaa !4
  br label %6, !llvm.loop !8

15:                                               ; preds = %6
  %16 = load i32, ptr %3, align 4, !tbaa !4
  %17 = icmp ult i32 %16, 8
  br i1 %17, label %18, label %20

18:                                               ; preds = %15
  %19 = load i32, ptr %3, align 4, !tbaa !4
  store i32 %19, ptr %2, align 4
  store i32 1, ptr %5, align 4
  br label %27

20:                                               ; preds = %15
  %21 = load i32, ptr %4, align 4, !tbaa !4
  %22 = add nsw i32 %21, 1
  %23 = shl i32 %22, 3
  %24 = load i32, ptr %3, align 4, !tbaa !4
  %25 = sub nsw i32 %24, 8
  %26 = or i32 %23, %25
  store i32 %26, ptr %2, align 4
  store i32 1, ptr %5, align 4
  br label %27

27:                                               ; preds = %20, %18
  call void @llvm.lifetime.end.p0(i64 4, ptr %4) #7
  %28 = load i32, ptr %2, align 4
  ret i32 %28
}