; Function Attrs: nofree norecurse nosync nounwind memory(none) uwtable
define hidden i32 @luaO_int2fb(i32 noundef %0) local_unnamed_addr #0 {
  %2 = icmp ugt i32 %0, 15
  br i1 %2, label %.lr.ph, label %._crit_edge

.lr.ph:                                           ; preds = %1, %.lr.ph
  %.011 = phi i32 [ %5, %.lr.ph ], [ 0, %1 ]
  %.0810 = phi i32 [ %4, %.lr.ph ], [ %0, %1 ]
  %3 = add i32 %.0810, 1
  %4 = lshr i32 %3, 1
  %5 = add nuw nsw i32 %.011, 1
  %6 = icmp ugt i32 %3, 31
  br i1 %6, label %.lr.ph, label %._crit_edge.loopexit, !llvm.loop !4

._crit_edge.loopexit:                             ; preds = %.lr.ph
  %7 = shl i32 %5, 3
  %8 = add i32 %7, 8
  br label %._crit_edge

._crit_edge:                                      ; preds = %._crit_edge.loopexit, %1
  %.08.lcssa = phi i32 [ %0, %1 ], [ %4, %._crit_edge.loopexit ]
  %.0.lcssa = phi i32 [ 8, %1 ], [ %8, %._crit_edge.loopexit ]
  %9 = icmp samesign ult i32 %.08.lcssa, 8
  %10 = add nsw i32 %.08.lcssa, -8
  %11 = or i32 %.0.lcssa, %10
  %.09 = select i1 %9, i32 %.08.lcssa, i32 %11
  ret i32 %.09
}